target datalayout = "e-m:e-p270:32:32-p271:32:32-p272:64:64-i64:64-i128:128-f80:128-n8:16:32:64-S128"
target triple = "x86_64-pc-linux-gnu"

%"struct.icu_77::UInitOnce" = type { %"struct.std::atomic", i32 }
%"struct.std::atomic" = type { %"struct.std::__atomic_base" }
%"struct.std::__atomic_base" = type { i32 }

@_ZN12_GLOBAL__N_122gAvailableLocaleCountsE = internal global [2 x i32] zeroinitializer, align 4
@_ZN12_GLOBAL__N_121gAvailableLocaleNamesE = internal global [2 x ptr] zeroinitializer, align 16
@_ZN12_GLOBAL__N_125ginstalledLocalesInitOnceE = internal global { { i32 }, i32 } zeroinitializer, align 4

; Function Attrs: noinline noreturn nounwind uwtable
define linkonce_odr hidden void @__clang_call_terminate(ptr noundef %0) #9 comdat {
  %2 = call ptr @__cxa_begin_catch(ptr %0) #12
  call void @_ZSt9terminatev() #13
  unreachable
}

; Function Attrs: mustprogress nounwind uwtable
define linkonce_odr noundef i32 @_ZStanSt12memory_orderSt23__memory_order_modifier(i32 noundef %0, i32 noundef %1) #6 comdat {
  %3 = alloca i32, align 4
  %4 = alloca i32, align 4
  store i32 %0, ptr %3, align 4, !tbaa !49
  store i32 %1, ptr %4, align 4, !tbaa !51
  %5 = load i32, ptr %3, align 4, !tbaa !49
  %6 = load i32, ptr %4, align 4, !tbaa !51
  %7 = and i32 %5, %6
  ret i32 %7
}

; Function Attrs: alwaysinline mustprogress nounwind uwtable
define linkonce_odr void @_ZNSt13__atomic_baseIiE5storeEiSt12memory_order(ptr noundef nonnull align 4 dereferenceable(4) %0, i32 noundef %1, i32 noundef %2) #8 comdat align 2 personality ptr @__gxx_personality_v0 {
  %4 = alloca ptr, align 8
  %5 = alloca i32, align 4
  %6 = alloca i32, align 4
  %7 = alloca i32, align 4
  %8 = alloca i32, align 4
  store ptr %0, ptr %4, align 8, !tbaa !47
  store i32 %1, ptr %5, align 4, !tbaa !3
  store i32 %2, ptr %6, align 4, !tbaa !49
  %9 = load ptr, ptr %4, align 8
  call void @llvm.lifetime.start.p0(i64 4, ptr %7) #12
  %10 = load i32, ptr %6, align 4, !tbaa !49
  %11 = invoke noundef i32 @_ZStanSt12memory_orderSt23__memory_order_modifier(i32 noundef %10, i32 noundef 65535)
          to label %12 unwind label %32

12:                                               ; preds = %3
  store i32 %11, ptr %7, align 4, !tbaa !49
  br label %13

13:                                               ; preds = %12
  br label %14

14:                                               ; preds = %13
  br label %15

15:                                               ; preds = %14
  br label %16

16:                                               ; preds = %15
  br label %17

17:                                               ; preds = %16
  br label %18

18:                                               ; preds = %17
  br label %19

19:                                               ; preds = %18
  br label %20

20:                                               ; preds = %19
  br label %21

21:                                               ; preds = %20
  %22 = getelementptr inbounds nuw %"struct.std::__atomic_base", ptr %9, i32 0, i32 0
  %23 = load i32, ptr %6, align 4, !tbaa !49
  %24 = load i32, ptr %5, align 4, !tbaa !3
  store i32 %24, ptr %8, align 4, !tbaa !3
  switch i32 %23, label %25 [
    i32 3, label %27
    i32 5, label %29
  ]

25:                                               ; preds = %21
  %26 = load i32, ptr %8, align 4
  store atomic i32 %26, ptr %22 monotonic, align 4
  br label %31

27:                                               ; preds = %21
  %28 = load i32, ptr %8, align 4
  store atomic i32 %28, ptr %22 release, align 4
  br label %31

29:                                               ; preds = %21
  %30 = load i32, ptr %8, align 4
  store atomic i32 %30, ptr %22 seq_cst, align 4
  br label %31

31:                                               ; preds = %29, %27, %25
  call void @llvm.lifetime.end.p0(i64 4, ptr %7) #12
  ret void

32:                                               ; preds = %3
  %33 = landingpad { ptr, i32 }
          catch ptr null
  %34 = extractvalue { ptr, i32 } %33, 0
  call void @__clang_call_terminate(ptr %34) #13
  unreachable
}

; Function Attrs: mustprogress nounwind uwtable
define linkonce_odr noundef i32 @_ZNSt13__atomic_baseIiEaSEi(ptr noundef nonnull align 4 dereferenceable(4) %0, i32 noundef %1) #6 comdat align 2 {
  %3 = alloca ptr, align 8
  %4 = alloca i32, align 4
  store ptr %0, ptr %3, align 8, !tbaa !47
  store i32 %1, ptr %4, align 4, !tbaa !3
  %5 = load ptr, ptr %3, align 8
  %6 = load i32, ptr %4, align 4, !tbaa !3
  call void @_ZNSt13__atomic_baseIiE5storeEiSt12memory_order(ptr noundef nonnull align 4 dereferenceable(4) %5, i32 noundef %6, i32 noundef 5) #12
  %7 = load i32, ptr %4, align 4, !tbaa !3
  ret i32 %7
}

; Function Attrs: mustprogress nounwind uwtable
define linkonce_odr void @_ZN6icu_779UInitOnce5resetEv(ptr noundef nonnull align 4 dereferenceable(8) %0) #6 comdat align 2 {
  %2 = alloca ptr, align 8
  store ptr %0, ptr %2, align 8, !tbaa !19
  %3 = load ptr, ptr %2, align 8
  %4 = getelementptr inbounds nuw %"struct.icu_77::UInitOnce", ptr %3, i32 0, i32 0
  %5 = call noundef i32 @_ZNSt13__atomic_baseIiEaSEi(ptr noundef nonnull align 4 dereferenceable(4) %4, i32 noundef 0) #12
  ret void
}

; Function Attrs: mustprogress uwtable
define internal noundef signext i8 @_ZN12_GLOBAL__N_112uloc_cleanupEv() #0 {
  %1 = alloca i32, align 4
  call void @llvm.lifetime.start.p0(i64 4, ptr %1) #12
  store i32 0, ptr %1, align 4, !tbaa !3
  br label %2

2:                                                ; preds = %17, %0
  %3 = load i32, ptr %1, align 4, !tbaa !3
  %4 = icmp slt i32 %3, 2
  br i1 %4, label %6, label %5

5:                                                ; preds = %2
  call void @llvm.lifetime.end.p0(i64 4, ptr %1) #12
  br label %20

6:                                                ; preds = %2
  %7 = load i32, ptr %1, align 4, !tbaa !3
  %8 = sext i32 %7 to i64
  %9 = getelementptr inbounds [2 x ptr], ptr @_ZN12_GLOBAL__N_121gAvailableLocaleNamesE, i64 0, i64 %8
  %10 = load ptr, ptr %9, align 8, !tbaa !12
  call void @uprv_free_77(ptr noundef %10)
  %11 = load i32, ptr %1, align 4, !tbaa !3
  %12 = sext i32 %11 to i64
  %13 = getelementptr inbounds [2 x ptr], ptr @_ZN12_GLOBAL__N_121gAvailableLocaleNamesE, i64 0, i64 %12
  store ptr null, ptr %13, align 8, !tbaa !12
  %14 = load i32, ptr %1, align 4, !tbaa !3
  %15 = sext i32 %14 to i64
  %16 = getelementptr inbounds [2 x i32], ptr @_ZN12_GLOBAL__N_122gAvailableLocaleCountsE, i64 0, i64 %15
  store i32 0, ptr %16, align 4, !tbaa !3
  br label %17

17:                                               ; preds = %6
  %18 = load i32, ptr %1, align 4, !tbaa !3
  %19 = add nsw i32 %18, 1
  store i32 %19, ptr %1, align 4, !tbaa !3
  br label %2, !llvm.loop !59

20:                                               ; preds = %5
  call void @_ZN6icu_779UInitOnce5resetEv(ptr noundef nonnull align 4 dereferenceable(8) @_ZN12_GLOBAL__N_125ginstalledLocalesInitOnceE)
  ret i8 1
}