; Function Attrs: mustprogress uwtable
define internal noundef signext i8 @_ZN12_GLOBAL__N_112uloc_cleanupEv() #0 personality ptr @__gxx_personality_v0 {
.critedge:
  %0 = load ptr, ptr @_ZN12_GLOBAL__N_121gAvailableLocaleNamesE, align 16, !tbaa !15
  tail call void @uprv_free_77(ptr noundef %0)
  store ptr null, ptr @_ZN12_GLOBAL__N_121gAvailableLocaleNamesE, align 16, !tbaa !15
  store i32 0, ptr @_ZN12_GLOBAL__N_122gAvailableLocaleCountsE, align 4, !tbaa !10
  %1 = load ptr, ptr getelementptr inbounds nuw (i8, ptr @_ZN12_GLOBAL__N_121gAvailableLocaleNamesE, i64 8), align 8, !tbaa !15
  tail call void @uprv_free_77(ptr noundef %1)
  store ptr null, ptr getelementptr inbounds nuw (i8, ptr @_ZN12_GLOBAL__N_121gAvailableLocaleNamesE, i64 8), align 8, !tbaa !15
  store i32 0, ptr getelementptr inbounds nuw (i8, ptr @_ZN12_GLOBAL__N_122gAvailableLocaleCountsE, i64 4), align 4, !tbaa !10
  store atomic i32 0, ptr @_ZN12_GLOBAL__N_125ginstalledLocalesInitOnceE seq_cst, align 4
  ret i8 1
}